; Function Attrs: nounwind uwtable
define hidden ptr @PyExpat_XML_MemRealloc(ptr noundef readonly %0, ptr noundef %1, i64 noundef %2) local_unnamed_addr #0 {
  %4 = icmp eq ptr %0, null
  br i1 %4, label %9, label %5

5:                                                ; preds = %3
  %6 = getelementptr inbounds nuw i8, ptr %0, i64 32
  %7 = load ptr, ptr %6, align 8, !tbaa !210
  %8 = tail call ptr %7(ptr noundef %1, i64 noundef %2) #25
  br label %9

9:                                                ; preds = %3, %5
  %.0 = phi ptr [ %8, %5 ], [ null, %3 ]
  ret ptr %.0
}